target datalayout = "e-m:e-p270:32:32-p271:32:32-p272:64:64-i64:64-i128:128-f80:128-n8:16:32:64-S128"
target triple = "x86_64-pc-linux-gnu"

%struct.jpeg_decompress_struct = type { ptr, ptr, ptr, ptr, i32, i32, ptr, i32, i32, i32, i32, i32, i32, i32, double, i32, i32, i32, i32, i32, i32, i32, i32, i32, i32, i32, i32, i32, i32, i32, i32, i32, i32, ptr, i32, i32, i32, i32, i32, ptr, [4 x ptr], [4 x ptr], [4 x ptr], i32, ptr, i32, i32, [16 x i8], [16 x i8], [16 x i8], i32, i32, i8, i8, i8, i16, i16, i32, i8, i32, ptr, i32, i32, i32, i32, ptr, i32, [4 x ptr], i32, i32, i32, [10 x i32], i32, i32, i32, i32, i32, ptr, ptr, ptr, ptr, ptr, ptr, ptr, ptr, ptr, ptr, ptr }
%struct.my_upsampler = type { %struct.jpeg_upsampler, [10 x ptr], [10 x ptr], i32, i32, [10 x i32], [10 x i8], [10 x i8] }
%struct.jpeg_upsampler = type { ptr, ptr, ptr, ptr, i32 }
%struct.jpeg_component_info = type { i32, i32, i32, i32, i32, i32, i32, i32, i32, i32, i32, i32, i32, i32, i32, i32, i32, i32, i32, ptr, ptr }

; Function Attrs: nounwind uwtable
define internal void @int_upsample(ptr noundef %0, ptr noundef %1, ptr noundef %2, ptr noundef %3) #0 {
  %5 = alloca ptr, align 8
  %6 = alloca ptr, align 8
  %7 = alloca ptr, align 8
  %8 = alloca ptr, align 8
  %9 = alloca ptr, align 8
  %10 = alloca ptr, align 8
  %11 = alloca ptr, align 8
  %12 = alloca ptr, align 8
  %13 = alloca i8, align 1
  %14 = alloca i32, align 4
  %15 = alloca ptr, align 8
  %16 = alloca i32, align 4
  %17 = alloca i32, align 4
  %18 = alloca i32, align 4
  %19 = alloca i32, align 4
  store ptr %0, ptr %5, align 8, !tbaa !3
  store ptr %1, ptr %6, align 8, !tbaa !45
  store ptr %2, ptr %7, align 8, !tbaa !68
  store ptr %3, ptr %8, align 8, !tbaa !74
  call void @llvm.lifetime.start.p0(i64 8, ptr %9) #3
  %20 = load ptr, ptr %5, align 8, !tbaa !3
  %21 = getelementptr inbounds nuw %struct.jpeg_decompress_struct, ptr %20, i32 0, i32 85
  %22 = load ptr, ptr %21, align 8, !tbaa !46
  store ptr %22, ptr %9, align 8, !tbaa !45
  call void @llvm.lifetime.start.p0(i64 8, ptr %10) #3
  %23 = load ptr, ptr %8, align 8, !tbaa !74
  %24 = load ptr, ptr %23, align 8, !tbaa !68
  store ptr %24, ptr %10, align 8, !tbaa !68
  call void @llvm.lifetime.start.p0(i64 8, ptr %11) #3
  call void @llvm.lifetime.start.p0(i64 8, ptr %12) #3
  call void @llvm.lifetime.start.p0(i64 1, ptr %13) #3
  call void @llvm.lifetime.start.p0(i64 4, ptr %14) #3
  call void @llvm.lifetime.start.p0(i64 8, ptr %15) #3
  call void @llvm.lifetime.start.p0(i64 4, ptr %16) #3
  call void @llvm.lifetime.start.p0(i64 4, ptr %17) #3
  call void @llvm.lifetime.start.p0(i64 4, ptr %18) #3
  call void @llvm.lifetime.start.p0(i64 4, ptr %19) #3
  %25 = load ptr, ptr %9, align 8, !tbaa !45
  %26 = getelementptr inbounds nuw %struct.my_upsampler, ptr %25, i32 0, i32 6
  %27 = load ptr, ptr %6, align 8, !tbaa !45
  %28 = getelementptr inbounds nuw %struct.jpeg_component_info, ptr %27, i32 0, i32 1
  %29 = load i32, ptr %28, align 4, !tbaa !94
  %30 = sext i32 %29 to i64
  %31 = getelementptr inbounds [10 x i8], ptr %26, i64 0, i64 %30
  %32 = load i8, ptr %31, align 1, !tbaa !39
  %33 = zext i8 %32 to i32
  store i32 %33, ptr %16, align 4, !tbaa !55
  %34 = load ptr, ptr %9, align 8, !tbaa !45
  %35 = getelementptr inbounds nuw %struct.my_upsampler, ptr %34, i32 0, i32 7
  %36 = load ptr, ptr %6, align 8, !tbaa !45
  %37 = getelementptr inbounds nuw %struct.jpeg_component_info, ptr %36, i32 0, i32 1
  %38 = load i32, ptr %37, align 4, !tbaa !94
  %39 = sext i32 %38 to i64
  %40 = getelementptr inbounds [10 x i8], ptr %35, i64 0, i64 %39
  %41 = load i8, ptr %40, align 1, !tbaa !39
  %42 = zext i8 %41 to i32
  store i32 %42, ptr %17, align 4, !tbaa !55
  store i32 0, ptr %19, align 4, !tbaa !55
  store i32 0, ptr %18, align 4, !tbaa !55
  br label %43

43:                                               ; preds = %100, %4
  %44 = load i32, ptr %19, align 4, !tbaa !55
  %45 = load ptr, ptr %5, align 8, !tbaa !3
  %46 = getelementptr inbounds nuw %struct.jpeg_decompress_struct, ptr %45, i32 0, i32 62
  %47 = load i32, ptr %46, align 4, !tbaa !63
  %48 = icmp slt i32 %44, %47
  br i1 %48, label %49, label %106

49:                                               ; preds = %43
  %50 = load ptr, ptr %7, align 8, !tbaa !68
  %51 = load i32, ptr %18, align 4, !tbaa !55
  %52 = sext i32 %51 to i64
  %53 = getelementptr inbounds ptr, ptr %50, i64 %52
  %54 = load ptr, ptr %53, align 8, !tbaa !81
  store ptr %54, ptr %11, align 8, !tbaa !81
  %55 = load ptr, ptr %10, align 8, !tbaa !68
  %56 = load i32, ptr %19, align 4, !tbaa !55
  %57 = sext i32 %56 to i64
  %58 = getelementptr inbounds ptr, ptr %55, i64 %57
  %59 = load ptr, ptr %58, align 8, !tbaa !81
  store ptr %59, ptr %12, align 8, !tbaa !81
  %60 = load ptr, ptr %12, align 8, !tbaa !81
  %61 = load ptr, ptr %5, align 8, !tbaa !3
  %62 = getelementptr inbounds nuw %struct.jpeg_decompress_struct, ptr %61, i32 0, i32 27
  %63 = load i32, ptr %62, align 8, !tbaa !67
  %64 = zext i32 %63 to i64
  %65 = getelementptr inbounds nuw i8, ptr %60, i64 %64
  store ptr %65, ptr %15, align 8, !tbaa !81
  br label %66

66:                                               ; preds = %85, %49
  %67 = load ptr, ptr %12, align 8, !tbaa !81
  %68 = load ptr, ptr %15, align 8, !tbaa !81
  %69 = icmp ult ptr %67, %68
  br i1 %69, label %70, label %86

70:                                               ; preds = %66
  %71 = load ptr, ptr %11, align 8, !tbaa !81
  %72 = getelementptr inbounds nuw i8, ptr %71, i32 1
  store ptr %72, ptr %11, align 8, !tbaa !81
  %73 = load i8, ptr %71, align 1, !tbaa !39
  store i8 %73, ptr %13, align 1, !tbaa !39
  %74 = load i32, ptr %16, align 4, !tbaa !55
  store i32 %74, ptr %14, align 4, !tbaa !55
  br label %75

75:                                               ; preds = %82, %70
  %76 = load i32, ptr %14, align 4, !tbaa !55
  %77 = icmp sgt i32 %76, 0
  br i1 %77, label %78, label %85

78:                                               ; preds = %75
  %79 = load i8, ptr %13, align 1, !tbaa !39
  %80 = load ptr, ptr %12, align 8, !tbaa !81
  %81 = getelementptr inbounds nuw i8, ptr %80, i32 1
  store ptr %81, ptr %12, align 8, !tbaa !81
  store i8 %79, ptr %80, align 1, !tbaa !39
  br label %82

82:                                               ; preds = %78
  %83 = load i32, ptr %14, align 4, !tbaa !55
  %84 = add nsw i32 %83, -1
  store i32 %84, ptr %14, align 4, !tbaa !55
  br label %75, !llvm.loop !95

85:                                               ; preds = %75
  br label %66, !llvm.loop !96

86:                                               ; preds = %66
  %87 = load i32, ptr %17, align 4, !tbaa !55
  %88 = icmp sgt i32 %87, 1
  br i1 %88, label %89, label %100

89:                                               ; preds = %86
  %90 = load ptr, ptr %10, align 8, !tbaa !68
  %91 = load i32, ptr %19, align 4, !tbaa !55
  %92 = load ptr, ptr %10, align 8, !tbaa !68
  %93 = load i32, ptr %19, align 4, !tbaa !55
  %94 = add nsw i32 %93, 1
  %95 = load i32, ptr %17, align 4, !tbaa !55
  %96 = sub nsw i32 %95, 1
  %97 = load ptr, ptr %5, align 8, !tbaa !3
  %98 = getelementptr inbounds nuw %struct.jpeg_decompress_struct, ptr %97, i32 0, i32 27
  %99 = load i32, ptr %98, align 8, !tbaa !67
  call void @jcopy_sample_rows(ptr noundef %90, i32 noundef %91, ptr noundef %92, i32 noundef %94, i32 noundef %96, i32 noundef %99)
  br label %100

100:                                              ; preds = %89, %86
  %101 = load i32, ptr %18, align 4, !tbaa !55
  %102 = add nsw i32 %101, 1
  store i32 %102, ptr %18, align 4, !tbaa !55
  %103 = load i32, ptr %17, align 4, !tbaa !55
  %104 = load i32, ptr %19, align 4, !tbaa !55
  %105 = add nsw i32 %104, %103
  store i32 %105, ptr %19, align 4, !tbaa !55
  br label %43, !llvm.loop !97

106:                                              ; preds = %43
  call void @llvm.lifetime.end.p0(i64 4, ptr %19) #3
  call void @llvm.lifetime.end.p0(i64 4, ptr %18) #3
  call void @llvm.lifetime.end.p0(i64 4, ptr %17) #3
  call void @llvm.lifetime.end.p0(i64 4, ptr %16) #3
  call void @llvm.lifetime.end.p0(i64 8, ptr %15) #3
  call void @llvm.lifetime.end.p0(i64 4, ptr %14) #3
  call void @llvm.lifetime.end.p0(i64 1, ptr %13) #3
  call void @llvm.lifetime.end.p0(i64 8, ptr %12) #3
  call void @llvm.lifetime.end.p0(i64 8, ptr %11) #3
  call void @llvm.lifetime.end.p0(i64 8, ptr %10) #3
  call void @llvm.lifetime.end.p0(i64 8, ptr %9) #3
  ret void
}