; Function Attrs: nounwind uwtable
define internal void @int_upsample(ptr noundef readonly captures(none) %0, ptr noundef readonly captures(none) %1, ptr noundef readonly captures(none) %2, ptr noundef readonly captures(none) %3) #0 {
  %5 = getelementptr inbounds nuw i8, ptr %0, i64 608
  %6 = load ptr, ptr %5, align 8, !tbaa !43
  %7 = load ptr, ptr %3, align 8, !tbaa !71
  %8 = getelementptr inbounds nuw i8, ptr %6, i64 248
  %9 = getelementptr inbounds nuw i8, ptr %1, i64 4
  %10 = load i32, ptr %9, align 4, !tbaa !90
  %11 = sext i32 %10 to i64
  %12 = getelementptr inbounds [10 x i8], ptr %8, i64 0, i64 %11
  %13 = load i8, ptr %12, align 1, !tbaa !37
  %.fr50 = freeze i8 %13
  %14 = zext i8 %.fr50 to i64
  %15 = getelementptr inbounds nuw i8, ptr %6, i64 258
  %16 = getelementptr inbounds [10 x i8], ptr %15, i64 0, i64 %11
  %17 = load i8, ptr %16, align 1, !tbaa !37
  %.fr = freeze i8 %17
  %18 = zext i8 %.fr to i32
  %19 = getelementptr inbounds nuw i8, ptr %0, i64 412
  %20 = load i32, ptr %19, align 4, !tbaa !59
  %21 = icmp sgt i32 %20, 0
  br i1 %21, label %.lr.ph, label %._crit_edge44

.lr.ph:                                           ; preds = %4
  %22 = getelementptr inbounds nuw i8, ptr %0, i64 136
  %.not = icmp eq i8 %.fr50, 0
  %23 = icmp ugt i8 %.fr, 1
  %24 = add nsw i32 %18, -1
  br i1 %.not, label %.lr.ph.split, label %.lr.ph.split.us

.lr.ph.split.us:                                  ; preds = %.lr.ph
  %25 = zext i8 %.fr50 to i64
  br i1 %23, label %.lr.ph.split.us.split.us.preheader, label %.lr.ph.split.us.split.preheader

.lr.ph.split.us.split.preheader:                  ; preds = %.lr.ph.split.us
  %26 = zext i8 %.fr50 to i64
  %27 = zext nneg i8 %.fr to i64
  br label %.lr.ph.split.us.split

.lr.ph.split.us.split.us.preheader:               ; preds = %.lr.ph.split.us
  %28 = add nuw nsw i64 %14, 4294967295
  %29 = and i64 %28, 4294967295
  %30 = zext i8 %.fr to i64
  br label %.lr.ph.split.us.split.us

.lr.ph.split.us.split.us:                         ; preds = %.lr.ph.split.us.split.us.preheader, %._crit_edge.split.us.us.us
  %indvars.iv67 = phi i64 [ 0, %.lr.ph.split.us.split.us.preheader ], [ %indvars.iv.next68, %._crit_edge.split.us.us.us ]
  %indvars.iv65 = phi i64 [ 0, %.lr.ph.split.us.split.us.preheader ], [ %indvars.iv.next66, %._crit_edge.split.us.us.us ]
  %indvars69 = trunc i64 %indvars.iv65 to i32
  %31 = getelementptr inbounds nuw ptr, ptr %7, i64 %indvars.iv65
  %32 = load ptr, ptr %31, align 8, !tbaa !76
  %33 = load i32, ptr %22, align 8, !tbaa !65
  %34 = zext i32 %33 to i64
  %35 = getelementptr inbounds nuw i8, ptr %32, i64 %34
  %.not54 = icmp eq i32 %33, 0
  br i1 %.not54, label %._crit_edge.split.us.us.us, label %.lr.ph.us.us.us.preheader

.lr.ph.us.us.us.preheader:                        ; preds = %.lr.ph.split.us.split.us
  %36 = getelementptr inbounds nuw ptr, ptr %2, i64 %indvars.iv67
  %37 = load ptr, ptr %36, align 8, !tbaa !76
  br label %.lr.ph.us.us.us

._crit_edge.split.us.us.us.loopexit:              ; preds = %.lr.ph.us.us.us
  %.pre72 = load i32, ptr %22, align 8, !tbaa !65
  br label %._crit_edge.split.us.us.us

._crit_edge.split.us.us.us:                       ; preds = %._crit_edge.split.us.us.us.loopexit, %.lr.ph.split.us.split.us
  %38 = phi i32 [ %.pre72, %._crit_edge.split.us.us.us.loopexit ], [ 0, %.lr.ph.split.us.split.us ]
  %39 = add nuw nsw i32 %indvars69, 1
  tail call void @jcopy_sample_rows(ptr noundef %7, i32 noundef %indvars69, ptr noundef %7, i32 noundef %39, i32 noundef %24, i32 noundef %38) #7
  %indvars.iv.next68 = add nuw nsw i64 %indvars.iv67, 1
  %indvars.iv.next66 = add nuw nsw i64 %indvars.iv65, %30
  %40 = load i32, ptr %19, align 4, !tbaa !59
  %41 = trunc nuw i64 %indvars.iv.next66 to i32
  %42 = icmp sgt i32 %40, %41
  br i1 %42, label %.lr.ph.split.us.split.us, label %._crit_edge44, !llvm.loop !91

.lr.ph.us.us.us:                                  ; preds = %.lr.ph.us.us.us.preheader, %.lr.ph.us.us.us
  %.03239.us.us.us = phi ptr [ %44, %.lr.ph.us.us.us ], [ %37, %.lr.ph.us.us.us.preheader ]
  %.03338.us.us.us = phi ptr [ %scevgep64, %.lr.ph.us.us.us ], [ %32, %.lr.ph.us.us.us.preheader ]
  %43 = load i8, ptr %.03239.us.us.us, align 1, !tbaa !37
  tail call void @llvm.memset.p0.i64(ptr align 1 %.03338.us.us.us, i8 %43, i64 %25, i1 false), !tbaa !37
  %44 = getelementptr inbounds nuw i8, ptr %.03239.us.us.us, i64 1
  %45 = getelementptr i8, ptr %.03338.us.us.us, i64 %29
  %scevgep64 = getelementptr i8, ptr %45, i64 1
  %46 = icmp ult ptr %scevgep64, %35
  br i1 %46, label %.lr.ph.us.us.us, label %._crit_edge.split.us.us.us.loopexit, !llvm.loop !92

.lr.ph.split.us.split:                            ; preds = %.lr.ph.split.us.split.preheader, %._crit_edge.split.us.us
  %47 = phi i32 [ %20, %.lr.ph.split.us.split.preheader ], [ %55, %._crit_edge.split.us.us ]
  %indvars.iv59 = phi i64 [ 0, %.lr.ph.split.us.split.preheader ], [ %indvars.iv.next60, %._crit_edge.split.us.us ]
  %indvars.iv = phi i64 [ 0, %.lr.ph.split.us.split.preheader ], [ %indvars.iv.next, %._crit_edge.split.us.us ]
  %48 = getelementptr inbounds nuw ptr, ptr %7, i64 %indvars.iv
  %49 = load ptr, ptr %48, align 8, !tbaa !76
  %50 = load i32, ptr %22, align 8, !tbaa !65
  %51 = zext i32 %50 to i64
  %52 = getelementptr inbounds nuw i8, ptr %49, i64 %51
  %.not53 = icmp eq i32 %50, 0
  br i1 %.not53, label %._crit_edge.split.us.us, label %.lr.ph.us.us.preheader

.lr.ph.us.us.preheader:                           ; preds = %.lr.ph.split.us.split
  %53 = getelementptr inbounds nuw ptr, ptr %2, i64 %indvars.iv59
  %54 = load ptr, ptr %53, align 8, !tbaa !76
  br label %.lr.ph.us.us

._crit_edge.split.us.us.loopexit:                 ; preds = %.lr.ph.us.us
  %.pre = load i32, ptr %19, align 4, !tbaa !59
  br label %._crit_edge.split.us.us

._crit_edge.split.us.us:                          ; preds = %._crit_edge.split.us.us.loopexit, %.lr.ph.split.us.split
  %55 = phi i32 [ %.pre, %._crit_edge.split.us.us.loopexit ], [ %47, %.lr.ph.split.us.split ]
  %indvars.iv.next60 = add nuw nsw i64 %indvars.iv59, 1
  %indvars.iv.next = add nuw nsw i64 %indvars.iv, %27
  %56 = sext i32 %55 to i64
  %57 = icmp slt i64 %indvars.iv.next, %56
  br i1 %57, label %.lr.ph.split.us.split, label %._crit_edge44, !llvm.loop !91

.lr.ph.us.us:                                     ; preds = %.lr.ph.us.us.preheader, %.lr.ph.us.us
  %.03239.us.us = phi ptr [ %59, %.lr.ph.us.us ], [ %54, %.lr.ph.us.us.preheader ]
  %.03338.us.us = phi ptr [ %scevgep, %.lr.ph.us.us ], [ %49, %.lr.ph.us.us.preheader ]
  %58 = load i8, ptr %.03239.us.us, align 1, !tbaa !37
  tail call void @llvm.memset.p0.i64(ptr align 1 %.03338.us.us, i8 %58, i64 %25, i1 false), !tbaa !37
  %59 = getelementptr inbounds nuw i8, ptr %.03239.us.us, i64 1
  %scevgep = getelementptr i8, ptr %.03338.us.us, i64 %26
  %60 = icmp ult ptr %scevgep, %52
  br i1 %60, label %.lr.ph.us.us, label %._crit_edge.split.us.us.loopexit, !llvm.loop !92

.lr.ph.split:                                     ; preds = %.lr.ph
  br i1 %23, label %.lr.ph.split.split.us, label %.lr.ph.split.split

.lr.ph.split.split.us:                            ; preds = %.lr.ph.split, %62
  %.042.us45 = phi i32 [ %64, %62 ], [ 0, %.lr.ph.split ]
  %61 = load i32, ptr %22, align 8, !tbaa !65
  %.not52 = icmp eq i32 %61, 0
  br i1 %.not52, label %62, label %.loopexit.preheader

62:                                               ; preds = %.lr.ph.split.split.us
  %63 = add nuw nsw i32 %.042.us45, 1
  tail call void @jcopy_sample_rows(ptr noundef %7, i32 noundef %.042.us45, ptr noundef %7, i32 noundef %63, i32 noundef %24, i32 noundef 0) #7
  %64 = add nuw nsw i32 %.042.us45, %18
  %65 = load i32, ptr %19, align 4, !tbaa !59
  %66 = icmp slt i32 %64, %65
  br i1 %66, label %.lr.ph.split.split.us, label %._crit_edge44, !llvm.loop !91

.lr.ph.split.split:                               ; preds = %.lr.ph.split
  %67 = load i32, ptr %22, align 8, !tbaa !65
  %.not51 = icmp eq i32 %67, 0
  br label %68

68:                                               ; preds = %.lr.ph.split.split, %69
  %.042 = phi i32 [ 0, %.lr.ph.split.split ], [ %70, %69 ]
  br i1 %.not51, label %69, label %.loopexit.preheader

.loopexit.preheader:                              ; preds = %68, %.lr.ph.split.split.us
  br label %.loopexit

.loopexit:                                        ; preds = %.loopexit.preheader, %.loopexit
  br label %.loopexit

69:                                               ; preds = %68
  %70 = add nuw nsw i32 %.042, %18
  %71 = icmp slt i32 %70, %20
  br i1 %71, label %68, label %._crit_edge44, !llvm.loop !91

._crit_edge44:                                    ; preds = %._crit_edge.split.us.us, %._crit_edge.split.us.us.us, %69, %62, %4
  ret void
}